; Function Attrs: mustprogress nofree norecurse nosync nounwind willreturn memory(argmem: write) uwtable
define noundef i32 @php_default_input_filter(i32 noundef %0, ptr nocapture noundef readnone %1, ptr nocapture noundef readnone %2, i64 noundef %3, ptr noundef writeonly %4) local_unnamed_addr #8 {
  %.not = icmp eq ptr %4, null
  br i1 %.not, label %7, label %6

6:                                                ; preds = %5
  store i64 %3, ptr %4, align 8
  br label %7

7:                                                ; preds = %6, %5
  ret i32 1
}